; Function Attrs: nounwind uwtable
define nonnull ptr @l_Lean_FuzzyMatching_fuzzyMatch___boxed(ptr noundef %0, ptr noundef %1, ptr noundef %2) local_unnamed_addr #0 {
  %4 = getelementptr i8, ptr %2, i64 8
  %.val = load double, ptr %4, align 8, !tbaa !21
  %5 = ptrtoint ptr %2 to i64
  %6 = and i64 %5, 1
  %.not = icmp eq i64 %6, 0
  br i1 %.not, label %7, label %lean_dec.exit7

7:                                                ; preds = %3
  %8 = load i32, ptr %2, align 4, !tbaa !5
  %9 = icmp sgt i32 %8, 1
  br i1 %9, label %10, label %12, !prof !10

10:                                               ; preds = %7
  %11 = add nsw i32 %8, -1
  store i32 %11, ptr %2, align 4, !tbaa !5
  br label %lean_dec.exit7

12:                                               ; preds = %7
  %.not.i = icmp eq i32 %8, 0
  br i1 %.not.i, label %lean_dec.exit7, label %13

13:                                               ; preds = %12
  tail call void @lean_dec_ref_cold(ptr noundef nonnull %2) #7
  br label %lean_dec.exit7

lean_dec.exit7:                                   ; preds = %13, %12, %10, %3
  %14 = tail call ptr @l_Lean_FuzzyMatching_fuzzyMatchScoreWithThreshold_x3f(ptr noundef %0, ptr noundef %1, double noundef %.val)
  %15 = ptrtoint ptr %14 to i64
  %16 = and i64 %15, 1
  %.not.i7.i = icmp eq i64 %16, 0
  br i1 %.not.i7.i, label %lean_obj_tag.exit.thread.i, label %lean_obj_tag.exit.i

lean_obj_tag.exit.i:                              ; preds = %lean_dec.exit7
  %17 = and i64 %15, 8589934590
  %.not11 = icmp eq i64 %17, 0
  %18 = select i1 %.not11, i64 1, i64 3
  br label %l_Lean_FuzzyMatching_fuzzyMatch.exit

lean_obj_tag.exit.thread.i:                       ; preds = %lean_dec.exit7
  %19 = getelementptr i8, ptr %14, i64 4
  %.val.i.i = load i32, ptr %19, align 4
  %20 = icmp ult i32 %.val.i.i, 16777216
  br i1 %20, label %l_Lean_FuzzyMatching_fuzzyMatch.exit, label %.thread.i

.thread.i:                                        ; preds = %lean_obj_tag.exit.thread.i
  %21 = load i32, ptr %14, align 4, !tbaa !5
  %22 = icmp sgt i32 %21, 1
  br i1 %22, label %23, label %25, !prof !10

23:                                               ; preds = %.thread.i
  %24 = add nsw i32 %21, -1
  store i32 %24, ptr %14, align 4, !tbaa !5
  br label %l_Lean_FuzzyMatching_fuzzyMatch.exit

25:                                               ; preds = %.thread.i
  %.not.i.i = icmp eq i32 %21, 0
  br i1 %.not.i.i, label %l_Lean_FuzzyMatching_fuzzyMatch.exit, label %26

26:                                               ; preds = %25
  tail call void @lean_dec_ref_cold(ptr noundef nonnull %14) #7
  br label %l_Lean_FuzzyMatching_fuzzyMatch.exit

l_Lean_FuzzyMatching_fuzzyMatch.exit:             ; preds = %lean_obj_tag.exit.i, %lean_obj_tag.exit.thread.i, %23, %25, %26
  %.0.i = phi i64 [ 1, %lean_obj_tag.exit.thread.i ], [ 3, %26 ], [ 3, %25 ], [ 3, %23 ], [ %18, %lean_obj_tag.exit.i ]
  %27 = ptrtoint ptr %1 to i64
  %28 = and i64 %27, 1
  %.not10 = icmp eq i64 %28, 0
  br i1 %.not10, label %29, label %lean_dec.exit

29:                                               ; preds = %l_Lean_FuzzyMatching_fuzzyMatch.exit
  %30 = load i32, ptr %1, align 4, !tbaa !5
  %31 = icmp sgt i32 %30, 1
  br i1 %31, label %32, label %34, !prof !10

32:                                               ; preds = %29
  %33 = add nsw i32 %30, -1
  store i32 %33, ptr %1, align 4, !tbaa !5
  br label %lean_dec.exit

34:                                               ; preds = %29
  %.not.i8 = icmp eq i32 %30, 0
  br i1 %.not.i8, label %lean_dec.exit, label %35

35:                                               ; preds = %34
  tail call void @lean_dec_ref_cold(ptr noundef nonnull %1) #7
  br label %lean_dec.exit

lean_dec.exit:                                    ; preds = %35, %34, %32, %l_Lean_FuzzyMatching_fuzzyMatch.exit
  %36 = inttoptr i64 %.0.i to ptr
  ret ptr %36
}